target datalayout = "e-m:e-p270:32:32-p271:32:32-p272:64:64-i64:64-i128:128-f80:128-n8:16:32:64-S128"
target triple = "x86_64-pc-linux-gnu"

%struct.PutBitContext = type { i32, i32, ptr, ptr, ptr }

@.str.9 = private unnamed_addr constant [43 x i8] c"Internal error, put_bits buffer too small\0A\00", align 1

; Function Attrs: alwaysinline nounwind willreturn memory(none) uwtable
define internal i32 @av_bswap32(i32 noundef %0) #7 {
  %2 = alloca i32, align 4
  store i32 %0, ptr %2, align 4, !tbaa !31
  %3 = load i32, ptr %2, align 4, !tbaa !31
  %4 = shl i32 %3, 8
  %5 = and i32 %4, 65280
  %6 = load i32, ptr %2, align 4, !tbaa !31
  %7 = lshr i32 %6, 8
  %8 = and i32 %7, 255
  %9 = or i32 %5, %8
  %10 = shl i32 %9, 16
  %11 = load i32, ptr %2, align 4, !tbaa !31
  %12 = lshr i32 %11, 16
  %13 = shl i32 %12, 8
  %14 = and i32 %13, 65280
  %15 = load i32, ptr %2, align 4, !tbaa !31
  %16 = lshr i32 %15, 16
  %17 = lshr i32 %16, 8
  %18 = and i32 %17, 255
  %19 = or i32 %14, %18
  %20 = or i32 %10, %19
  ret i32 %20
}

; Function Attrs: inlinehint nounwind uwtable
define internal void @put_bits_no_assert(ptr noundef %0, i32 noundef %1, i32 noundef %2) #6 {
  %4 = alloca ptr, align 8
  %5 = alloca i32, align 4
  %6 = alloca i32, align 4
  %7 = alloca i32, align 4
  %8 = alloca i32, align 4
  store ptr %0, ptr %4, align 8, !tbaa !59
  store i32 %1, ptr %5, align 4, !tbaa !31
  store i32 %2, ptr %6, align 4, !tbaa !31
  call void @llvm.lifetime.start.p0(i64 4, ptr %7) #9
  call void @llvm.lifetime.start.p0(i64 4, ptr %8) #9
  %9 = load ptr, ptr %4, align 8, !tbaa !59
  %10 = getelementptr inbounds nuw %struct.PutBitContext, ptr %9, i32 0, i32 0
  %11 = load i32, ptr %10, align 8, !tbaa !66
  store i32 %11, ptr %7, align 4, !tbaa !31
  %12 = load ptr, ptr %4, align 8, !tbaa !59
  %13 = getelementptr inbounds nuw %struct.PutBitContext, ptr %12, i32 0, i32 1
  %14 = load i32, ptr %13, align 4, !tbaa !65
  store i32 %14, ptr %8, align 4, !tbaa !31
  %15 = load i32, ptr %5, align 4, !tbaa !31
  %16 = load i32, ptr %8, align 4, !tbaa !31
  %17 = icmp slt i32 %15, %16
  br i1 %17, label %18, label %27

18:                                               ; preds = %3
  %19 = load i32, ptr %7, align 4, !tbaa !31
  %20 = load i32, ptr %5, align 4, !tbaa !31
  %21 = shl i32 %19, %20
  %22 = load i32, ptr %6, align 4, !tbaa !31
  %23 = or i32 %21, %22
  store i32 %23, ptr %7, align 4, !tbaa !31
  %24 = load i32, ptr %5, align 4, !tbaa !31
  %25 = load i32, ptr %8, align 4, !tbaa !31
  %26 = sub nsw i32 %25, %24
  store i32 %26, ptr %8, align 4, !tbaa !31
  br label %65

27:                                               ; preds = %3
  %28 = load i32, ptr %8, align 4, !tbaa !31
  %29 = load i32, ptr %7, align 4, !tbaa !31
  %30 = shl i32 %29, %28
  store i32 %30, ptr %7, align 4, !tbaa !31
  %31 = load i32, ptr %6, align 4, !tbaa !31
  %32 = load i32, ptr %5, align 4, !tbaa !31
  %33 = load i32, ptr %8, align 4, !tbaa !31
  %34 = sub nsw i32 %32, %33
  %35 = lshr i32 %31, %34
  %36 = load i32, ptr %7, align 4, !tbaa !31
  %37 = or i32 %36, %35
  store i32 %37, ptr %7, align 4, !tbaa !31
  %38 = load ptr, ptr %4, align 8, !tbaa !59
  %39 = getelementptr inbounds nuw %struct.PutBitContext, ptr %38, i32 0, i32 4
  %40 = load ptr, ptr %39, align 8, !tbaa !63
  %41 = load ptr, ptr %4, align 8, !tbaa !59
  %42 = getelementptr inbounds nuw %struct.PutBitContext, ptr %41, i32 0, i32 3
  %43 = load ptr, ptr %42, align 8, !tbaa !64
  %44 = ptrtoint ptr %40 to i64
  %45 = ptrtoint ptr %43 to i64
  %46 = sub i64 %44, %45
  %47 = icmp uge i64 %46, 4
  br i1 %47, label %48, label %58

48:                                               ; preds = %27
  %49 = load i32, ptr %7, align 4, !tbaa !31
  %50 = call i32 @av_bswap32(i32 noundef %49) #11
  %51 = load ptr, ptr %4, align 8, !tbaa !59
  %52 = getelementptr inbounds nuw %struct.PutBitContext, ptr %51, i32 0, i32 3
  %53 = load ptr, ptr %52, align 8, !tbaa !64
  store i32 %50, ptr %53, align 1, !tbaa !58
  %54 = load ptr, ptr %4, align 8, !tbaa !59
  %55 = getelementptr inbounds nuw %struct.PutBitContext, ptr %54, i32 0, i32 3
  %56 = load ptr, ptr %55, align 8, !tbaa !64
  %57 = getelementptr inbounds nuw i8, ptr %56, i64 4
  store ptr %57, ptr %55, align 8, !tbaa !64
  br label %59

58:                                               ; preds = %27
  call void (ptr, i32, ptr, ...) @av_log(ptr noundef null, i32 noundef 16, ptr noundef @.str.9)
  br label %59

59:                                               ; preds = %58, %48
  %60 = load i32, ptr %5, align 4, !tbaa !31
  %61 = sub nsw i32 32, %60
  %62 = load i32, ptr %8, align 4, !tbaa !31
  %63 = add nsw i32 %62, %61
  store i32 %63, ptr %8, align 4, !tbaa !31
  %64 = load i32, ptr %6, align 4, !tbaa !31
  store i32 %64, ptr %7, align 4, !tbaa !31
  br label %65

65:                                               ; preds = %59, %18
  %66 = load i32, ptr %7, align 4, !tbaa !31
  %67 = load ptr, ptr %4, align 8, !tbaa !59
  %68 = getelementptr inbounds nuw %struct.PutBitContext, ptr %67, i32 0, i32 0
  store i32 %66, ptr %68, align 8, !tbaa !66
  %69 = load i32, ptr %8, align 4, !tbaa !31
  %70 = load ptr, ptr %4, align 8, !tbaa !59
  %71 = getelementptr inbounds nuw %struct.PutBitContext, ptr %70, i32 0, i32 1
  store i32 %69, ptr %71, align 4, !tbaa !65
  call void @llvm.lifetime.end.p0(i64 4, ptr %8) #9
  call void @llvm.lifetime.end.p0(i64 4, ptr %7) #9
  ret void
}

; Function Attrs: inlinehint nounwind uwtable
define internal void @put_bits(ptr noundef %0, i32 noundef %1, i32 noundef %2) #6 {
  %4 = alloca ptr, align 8
  %5 = alloca i32, align 4
  %6 = alloca i32, align 4
  store ptr %0, ptr %4, align 8, !tbaa !59
  store i32 %1, ptr %5, align 4, !tbaa !31
  store i32 %2, ptr %6, align 4, !tbaa !31
  %7 = load ptr, ptr %4, align 8, !tbaa !59
  %8 = load i32, ptr %5, align 4, !tbaa !31
  %9 = load i32, ptr %6, align 4, !tbaa !31
  call void @put_bits_no_assert(ptr noundef %7, i32 noundef %8, i32 noundef %9)
  ret void
}

; Function Attrs: inlinehint nounwind uwtable
define internal void @align_put_bits(ptr noundef %0) #6 {
  %2 = alloca ptr, align 8
  store ptr %0, ptr %2, align 8, !tbaa !59
  %3 = load ptr, ptr %2, align 8, !tbaa !59
  %4 = load ptr, ptr %2, align 8, !tbaa !59
  %5 = getelementptr inbounds nuw %struct.PutBitContext, ptr %4, i32 0, i32 1
  %6 = load i32, ptr %5, align 4, !tbaa !65
  %7 = and i32 %6, 7
  call void @put_bits(ptr noundef %3, i32 noundef %7, i32 noundef 0)
  ret void
}

; Function Attrs: inlinehint nounwind uwtable
define internal i32 @put_bytes_left(ptr noundef %0, i32 noundef %1) #6 {
  %3 = alloca ptr, align 8
  %4 = alloca i32, align 4
  store ptr %0, ptr %3, align 8, !tbaa !59
  store i32 %1, ptr %4, align 4, !tbaa !31
  %5 = load ptr, ptr %3, align 8, !tbaa !59
  %6 = getelementptr inbounds nuw %struct.PutBitContext, ptr %5, i32 0, i32 4
  %7 = load ptr, ptr %6, align 8, !tbaa !63
  %8 = load ptr, ptr %3, align 8, !tbaa !59
  %9 = getelementptr inbounds nuw %struct.PutBitContext, ptr %8, i32 0, i32 3
  %10 = load ptr, ptr %9, align 8, !tbaa !64
  %11 = ptrtoint ptr %7 to i64
  %12 = ptrtoint ptr %10 to i64
  %13 = sub i64 %11, %12
  %14 = load ptr, ptr %3, align 8, !tbaa !59
  %15 = getelementptr inbounds nuw %struct.PutBitContext, ptr %14, i32 0, i32 1
  %16 = load i32, ptr %15, align 4, !tbaa !65
  %17 = sub nsw i32 32, %16
  %18 = load i32, ptr %4, align 4, !tbaa !31
  %19 = icmp ne i32 %18, 0
  %20 = select i1 %19, i32 7, i32 0
  %21 = add nsw i32 %17, %20
  %22 = ashr i32 %21, 3
  %23 = sext i32 %22 to i64
  %24 = sub nsw i64 %13, %23
  %25 = trunc i64 %24 to i32
  ret i32 %25
}

; Function Attrs: nounwind uwtable
define internal i32 @xsub_encode_rle(ptr noundef %0, ptr noundef %1, i32 noundef %2, i32 noundef %3, i32 noundef %4) #1 {
  %6 = alloca i32, align 4
  %7 = alloca ptr, align 8
  %8 = alloca ptr, align 8
  %9 = alloca i32, align 4
  %10 = alloca i32, align 4
  %11 = alloca i32, align 4
  %12 = alloca i32, align 4
  %13 = alloca i32, align 4
  %14 = alloca i32, align 4
  %15 = alloca i32, align 4
  %16 = alloca i32, align 4
  %17 = alloca i32, align 4
  store ptr %0, ptr %7, align 8, !tbaa !59
  store ptr %1, ptr %8, align 8, !tbaa !30
  store i32 %2, ptr %9, align 4, !tbaa !31
  store i32 %3, ptr %10, align 4, !tbaa !31
  store i32 %4, ptr %11, align 4, !tbaa !31
  call void @llvm.lifetime.start.p0(i64 4, ptr %12) #9
  call void @llvm.lifetime.start.p0(i64 4, ptr %13) #9
  call void @llvm.lifetime.start.p0(i64 4, ptr %14) #9
  call void @llvm.lifetime.start.p0(i64 4, ptr %15) #9
  call void @llvm.lifetime.start.p0(i64 4, ptr %16) #9
  store i32 0, ptr %16, align 4, !tbaa !31
  store i32 0, ptr %14, align 4, !tbaa !31
  br label %18

18:                                               ; preds = %111, %5
  %19 = load i32, ptr %14, align 4, !tbaa !31
  %20 = load i32, ptr %11, align 4, !tbaa !31
  %21 = icmp slt i32 %19, %20
  br i1 %21, label %22, label %114

22:                                               ; preds = %18
  store i32 0, ptr %12, align 4, !tbaa !31
  br label %23

23:                                               ; preds = %85, %22
  %24 = load i32, ptr %12, align 4, !tbaa !31
  %25 = load i32, ptr %10, align 4, !tbaa !31
  %26 = icmp slt i32 %24, %25
  br i1 %26, label %27, label %92

27:                                               ; preds = %23
  %28 = load ptr, ptr %7, align 8, !tbaa !59
  %29 = call i32 @put_bytes_left(ptr noundef %28, i32 noundef 1)
  %30 = icmp slt i32 %29, 7
  br i1 %30, label %31, label %32

31:                                               ; preds = %27
  store i32 -1397118274, ptr %6, align 4
  store i32 1, ptr %17, align 4
  br label %115

32:                                               ; preds = %27
  %33 = load i32, ptr %12, align 4, !tbaa !31
  store i32 %33, ptr %13, align 4, !tbaa !31
  %34 = load ptr, ptr %8, align 8, !tbaa !30
  %35 = load i32, ptr %13, align 4, !tbaa !31
  %36 = add nsw i32 %35, 1
  store i32 %36, ptr %13, align 4, !tbaa !31
  %37 = sext i32 %35 to i64
  %38 = getelementptr inbounds i8, ptr %34, i64 %37
  %39 = load i8, ptr %38, align 1, !tbaa !58
  %40 = zext i8 %39 to i32
  %41 = and i32 %40, 3
  store i32 %41, ptr %16, align 4, !tbaa !31
  br label %42

42:                                               ; preds = %58, %32
  %43 = load i32, ptr %13, align 4, !tbaa !31
  %44 = load i32, ptr %10, align 4, !tbaa !31
  %45 = icmp slt i32 %43, %44
  br i1 %45, label %46, label %56

46:                                               ; preds = %42
  %47 = load ptr, ptr %8, align 8, !tbaa !30
  %48 = load i32, ptr %13, align 4, !tbaa !31
  %49 = sext i32 %48 to i64
  %50 = getelementptr inbounds i8, ptr %47, i64 %49
  %51 = load i8, ptr %50, align 1, !tbaa !58
  %52 = zext i8 %51 to i32
  %53 = and i32 %52, 3
  %54 = load i32, ptr %16, align 4, !tbaa !31
  %55 = icmp eq i32 %53, %54
  br label %56

56:                                               ; preds = %46, %42
  %57 = phi i1 [ false, %42 ], [ %55, %46 ]
  br i1 %57, label %58, label %61

58:                                               ; preds = %56
  %59 = load i32, ptr %13, align 4, !tbaa !31
  %60 = add nsw i32 %59, 1
  store i32 %60, ptr %13, align 4, !tbaa !31
  br label %42, !llvm.loop !67

61:                                               ; preds = %56
  %62 = load i32, ptr %13, align 4, !tbaa !31
  %63 = load i32, ptr %12, align 4, !tbaa !31
  %64 = sub nsw i32 %62, %63
  store i32 %64, ptr %15, align 4, !tbaa !31
  %65 = load i32, ptr %13, align 4, !tbaa !31
  %66 = load i32, ptr %10, align 4, !tbaa !31
  %67 = icmp eq i32 %65, %66
  br i1 %67, label %68, label %77

68:                                               ; preds = %61
  %69 = load i32, ptr %16, align 4, !tbaa !31
  %70 = icmp eq i32 %69, 0
  br i1 %70, label %71, label %77

71:                                               ; preds = %68
  %72 = load i32, ptr %10, align 4, !tbaa !31
  %73 = and i32 %72, 1
  %74 = add nsw i32 0, %73
  %75 = load i32, ptr %15, align 4, !tbaa !31
  %76 = add nsw i32 %75, %74
  store i32 %76, ptr %15, align 4, !tbaa !31
  br label %85

77:                                               ; preds = %68, %61
  %78 = load i32, ptr %15, align 4, !tbaa !31
  %79 = icmp sgt i32 %78, 255
  br i1 %79, label %80, label %81

80:                                               ; preds = %77
  br label %83

81:                                               ; preds = %77
  %82 = load i32, ptr %15, align 4, !tbaa !31
  br label %83

83:                                               ; preds = %81, %80
  %84 = phi i32 [ 255, %80 ], [ %82, %81 ]
  store i32 %84, ptr %15, align 4, !tbaa !31
  br label %85

85:                                               ; preds = %83, %71
  %86 = load ptr, ptr %7, align 8, !tbaa !59
  %87 = load i32, ptr %15, align 4, !tbaa !31
  %88 = load i32, ptr %16, align 4, !tbaa !31
  call void @put_xsub_rle(ptr noundef %86, i32 noundef %87, i32 noundef %88)
  %89 = load i32, ptr %15, align 4, !tbaa !31
  %90 = load i32, ptr %12, align 4, !tbaa !31
  %91 = add nsw i32 %90, %89
  store i32 %91, ptr %12, align 4, !tbaa !31
  br label %23, !llvm.loop !68

92:                                               ; preds = %23
  %93 = load i32, ptr %16, align 4, !tbaa !31
  %94 = icmp ne i32 %93, 0
  br i1 %94, label %95, label %105

95:                                               ; preds = %92
  %96 = load i32, ptr %10, align 4, !tbaa !31
  %97 = and i32 %96, 1
  %98 = add nsw i32 0, %97
  %99 = icmp ne i32 %98, 0
  br i1 %99, label %100, label %105

100:                                              ; preds = %95
  %101 = load ptr, ptr %7, align 8, !tbaa !59
  %102 = load i32, ptr %10, align 4, !tbaa !31
  %103 = and i32 %102, 1
  %104 = add nsw i32 0, %103
  call void @put_xsub_rle(ptr noundef %101, i32 noundef %104, i32 noundef 0)
  br label %105

105:                                              ; preds = %100, %95, %92
  %106 = load ptr, ptr %7, align 8, !tbaa !59
  call void @align_put_bits(ptr noundef %106)
  %107 = load i32, ptr %9, align 4, !tbaa !31
  %108 = load ptr, ptr %8, align 8, !tbaa !30
  %109 = sext i32 %107 to i64
  %110 = getelementptr inbounds i8, ptr %108, i64 %109
  store ptr %110, ptr %8, align 8, !tbaa !30
  br label %111

111:                                              ; preds = %105
  %112 = load i32, ptr %14, align 4, !tbaa !31
  %113 = add nsw i32 %112, 1
  store i32 %113, ptr %14, align 4, !tbaa !31
  br label %18, !llvm.loop !69

114:                                              ; preds = %18
  store i32 0, ptr %6, align 4
  store i32 1, ptr %17, align 4
  br label %115

115:                                              ; preds = %114, %31
  call void @llvm.lifetime.end.p0(i64 4, ptr %16) #9
  call void @llvm.lifetime.end.p0(i64 4, ptr %15) #9
  call void @llvm.lifetime.end.p0(i64 4, ptr %14) #9
  call void @llvm.lifetime.end.p0(i64 4, ptr %13) #9
  call void @llvm.lifetime.end.p0(i64 4, ptr %12) #9
  %116 = load i32, ptr %6, align 4
  ret i32 %116
}