; Function Attrs: nounwind uwtable
define internal fastcc range(i32 -1397118274, 1) i32 @xsub_encode_rle(ptr noundef nonnull captures(none) %0, ptr noundef readonly captures(none) %1, i32 noundef %2, i32 noundef %3, i32 noundef range(i32 -1073741824, 1073741824) %4) unnamed_addr #1 {
  %6 = icmp sgt i32 %4, 0
  br i1 %6, label %.preheader.lr.ph, label %.loopexit

.preheader.lr.ph:                                 ; preds = %5
  %7 = icmp sgt i32 %3, 0
  %8 = getelementptr inbounds nuw i8, ptr %0, i64 24
  %9 = getelementptr inbounds nuw i8, ptr %0, i64 16
  %10 = getelementptr inbounds nuw i8, ptr %0, i64 4
  %11 = and i32 %3, 1
  %.not45 = icmp eq i32 %11, 0
  %12 = sext i32 %2 to i64
  br i1 %7, label %.preheader.us.preheader, label %.preheader.preheader

.preheader.preheader:                             ; preds = %.preheader.lr.ph
  %.pre = load i32, ptr %10, align 4, !tbaa !54
  %.pre59 = load i32, ptr %0, align 8, !tbaa !55
  br label %.preheader

.preheader.us.preheader:                          ; preds = %.preheader.lr.ph
  %13 = zext nneg i32 %3 to i64
  br label %.preheader.us

.preheader.us:                                    ; preds = %.preheader.us.preheader, %align_put_bits.exit.us
  %.03853.us = phi i32 [ %39, %align_put_bits.exit.us ], [ 0, %.preheader.us.preheader ]
  %.04252.us = phi ptr [ %38, %align_put_bits.exit.us ], [ %1, %.preheader.us.preheader ]
  br label %40

14:                                               ; preds = %._crit_edge.us
  tail call fastcc void @put_xsub_rle(ptr noundef %0, i32 noundef 1, i32 noundef 0)
  br label %15

15:                                               ; preds = %14, %._crit_edge.us
  %16 = load i32, ptr %10, align 4, !tbaa !54
  %17 = load i32, ptr %0, align 8, !tbaa !55
  %18 = icmp sgt i32 %16, 7
  br i1 %18, label %34, label %19

19:                                               ; preds = %15
  %20 = load ptr, ptr %8, align 8, !tbaa !52
  %21 = load ptr, ptr %9, align 8, !tbaa !53
  %22 = ptrtoint ptr %20 to i64
  %23 = ptrtoint ptr %21 to i64
  %24 = sub i64 %22, %23
  %25 = icmp ugt i64 %24, 3
  br i1 %25, label %27, label %26

26:                                               ; preds = %19
  tail call void (ptr, i32, ptr, ...) @av_log(ptr noundef null, i32 noundef 16, ptr noundef nonnull @.str.9) #8
  br label %32

27:                                               ; preds = %19
  %28 = shl i32 %17, %16
  %29 = tail call i32 @llvm.bswap.i32(i32 %28)
  store i32 %29, ptr %21, align 1, !tbaa !46
  %30 = load ptr, ptr %9, align 8, !tbaa !53
  %31 = getelementptr inbounds nuw i8, ptr %30, i64 4
  store ptr %31, ptr %9, align 8, !tbaa !53
  br label %32

32:                                               ; preds = %27, %26
  %reass.sub.i.i.us = and i32 %16, -8
  %33 = add i32 %reass.sub.i.i.us, 32
  br label %align_put_bits.exit.us

34:                                               ; preds = %15
  %35 = and i32 %16, 7
  %36 = shl i32 %17, %35
  %37 = and i32 %16, 2147483640
  br label %align_put_bits.exit.us

align_put_bits.exit.us:                           ; preds = %34, %32
  %.026.i.i.i.us = phi i32 [ %36, %34 ], [ 0, %32 ]
  %.0.i.i.i.us = phi i32 [ %37, %34 ], [ %33, %32 ]
  store i32 %.026.i.i.i.us, ptr %0, align 8, !tbaa !55
  store i32 %.0.i.i.i.us, ptr %10, align 4, !tbaa !54
  %38 = getelementptr inbounds i8, ptr %.04252.us, i64 %12
  %39 = add nuw nsw i32 %.03853.us, 1
  %exitcond58.not = icmp eq i32 %39, %4
  br i1 %exitcond58.not, label %.loopexit, label %.preheader.us, !llvm.loop !56

40:                                               ; preds = %.preheader.us, %.critedge.us
  %.04051.us = phi i32 [ 0, %.preheader.us ], [ %73, %.critedge.us ]
  %41 = load ptr, ptr %8, align 8, !tbaa !52
  %42 = load ptr, ptr %9, align 8, !tbaa !53
  %43 = ptrtoint ptr %41 to i64
  %44 = ptrtoint ptr %42 to i64
  %45 = load i32, ptr %10, align 4, !tbaa !54
  %46 = sub i32 39, %45
  %47 = ashr i32 %46, 3
  %48 = zext i32 %47 to i64
  %49 = add i64 %44, %48
  %50 = sub i64 %43, %49
  %51 = trunc i64 %50 to i32
  %52 = icmp slt i32 %51, 7
  br i1 %52, label %.loopexit, label %53

53:                                               ; preds = %40
  %54 = sext i32 %.04051.us to i64
  %55 = getelementptr inbounds i8, ptr %.04252.us, i64 %54
  %56 = load i8, ptr %55, align 1, !tbaa !46
  %57 = and i8 %56, 3
  %58 = zext nneg i8 %57 to i32
  %59 = add nsw i32 %.04051.us, 1
  %smax = tail call i32 @llvm.smax.i32(i32 %3, i32 %59)
  br label %60

60:                                               ; preds = %62, %53
  %indvars.iv = phi i64 [ %indvars.iv.next, %62 ], [ %54, %53 ]
  %indvars.iv.next = add nsw i64 %indvars.iv, 1
  %61 = icmp slt i64 %indvars.iv.next, %13
  br i1 %61, label %62, label %.critedge.us

62:                                               ; preds = %60
  %63 = getelementptr inbounds i8, ptr %.04252.us, i64 %indvars.iv.next
  %64 = load i8, ptr %63, align 1, !tbaa !46
  %65 = and i8 %64, 3
  %66 = icmp eq i8 %65, %57
  br i1 %66, label %60, label %.critedge.us.split.loop.exit, !llvm.loop !57

.critedge.us.split.loop.exit:                     ; preds = %62
  %67 = trunc nsw i64 %indvars.iv.next to i32
  br label %.critedge.us

.critedge.us:                                     ; preds = %60, %.critedge.us.split.loop.exit
  %.039.us.lcssa = phi i32 [ %67, %.critedge.us.split.loop.exit ], [ %smax, %60 ]
  %68 = sub nsw i32 %.039.us.lcssa, %.04051.us
  %69 = icmp eq i32 %.039.us.lcssa, %3
  %70 = icmp eq i8 %57, 0
  %or.cond.us = select i1 %69, i1 %70, i1 false
  %71 = add nsw i32 %68, %11
  %72 = tail call i32 @llvm.smin.i32(i32 %68, i32 255)
  %.037.us = select i1 %or.cond.us, i32 %71, i32 %72
  tail call fastcc void @put_xsub_rle(ptr noundef %0, i32 noundef %.037.us, i32 noundef %58)
  %73 = add nsw i32 %.037.us, %.04051.us
  %74 = icmp slt i32 %73, %3
  br i1 %74, label %40, label %._crit_edge.us, !llvm.loop !58

._crit_edge.us:                                   ; preds = %.critedge.us
  %or.cond46.us = or i1 %.not45, %70
  br i1 %or.cond46.us, label %15, label %14

.preheader:                                       ; preds = %.preheader.preheader, %align_put_bits.exit
  %75 = phi i32 [ %.026.i.i.i, %align_put_bits.exit ], [ %.pre59, %.preheader.preheader ]
  %76 = phi i32 [ %.0.i.i.i, %align_put_bits.exit ], [ %.pre, %.preheader.preheader ]
  %.03853 = phi i32 [ %97, %align_put_bits.exit ], [ 0, %.preheader.preheader ]
  %77 = icmp sgt i32 %76, 7
  br i1 %77, label %78, label %82

78:                                               ; preds = %.preheader
  %79 = and i32 %76, 7
  %80 = shl i32 %75, %79
  %81 = and i32 %76, 2147483640
  br label %align_put_bits.exit

82:                                               ; preds = %.preheader
  %83 = load ptr, ptr %8, align 8, !tbaa !52
  %84 = load ptr, ptr %9, align 8, !tbaa !53
  %85 = ptrtoint ptr %83 to i64
  %86 = ptrtoint ptr %84 to i64
  %87 = sub i64 %85, %86
  %88 = icmp ugt i64 %87, 3
  br i1 %88, label %89, label %94

89:                                               ; preds = %82
  %90 = shl i32 %75, %76
  %91 = tail call i32 @llvm.bswap.i32(i32 %90)
  store i32 %91, ptr %84, align 1, !tbaa !46
  %92 = load ptr, ptr %9, align 8, !tbaa !53
  %93 = getelementptr inbounds nuw i8, ptr %92, i64 4
  store ptr %93, ptr %9, align 8, !tbaa !53
  br label %95

94:                                               ; preds = %82
  tail call void (ptr, i32, ptr, ...) @av_log(ptr noundef null, i32 noundef 16, ptr noundef nonnull @.str.9) #8
  br label %95

95:                                               ; preds = %94, %89
  %reass.sub.i.i = and i32 %76, -8
  %96 = add i32 %reass.sub.i.i, 32
  br label %align_put_bits.exit

align_put_bits.exit:                              ; preds = %78, %95
  %.026.i.i.i = phi i32 [ %80, %78 ], [ 0, %95 ]
  %.0.i.i.i = phi i32 [ %81, %78 ], [ %96, %95 ]
  store i32 %.026.i.i.i, ptr %0, align 8, !tbaa !55
  store i32 %.0.i.i.i, ptr %10, align 4, !tbaa !54
  %97 = add nuw nsw i32 %.03853, 1
  %exitcond.not = icmp eq i32 %97, %4
  br i1 %exitcond.not, label %.loopexit, label %.preheader, !llvm.loop !56

.loopexit:                                        ; preds = %align_put_bits.exit, %align_put_bits.exit.us, %40, %5
  %.041 = phi i32 [ 0, %5 ], [ -1397118274, %40 ], [ 0, %align_put_bits.exit.us ], [ 0, %align_put_bits.exit ]
  ret i32 %.041
}